target datalayout = "e-m:e-p270:32:32-p271:32:32-p272:64:64-i64:64-i128:128-f80:128-n8:16:32:64-S128"
target triple = "x86_64-pc-linux-gnu"

%"class.cv::Size_" = type { i32, i32 }
%"class.perf::TestBase" = type { %"class.testing::Test", %"class.std::vector", %"class.std::vector", i32, %"class.std::vector.0", i64, i64, i64, i32, i32, i32, i32, i32, [4 x i8], %"struct.perf::performance_metrics", i8, %"class.perf::TestBase::_declareHelper" }
%"class.testing::Test" = type { ptr, %"class.testing::internal::scoped_ptr" }
%"class.testing::internal::scoped_ptr" = type { ptr }
%"class.std::vector" = type { %"struct.std::_Vector_base" }
%"struct.std::_Vector_base" = type { %"struct.std::_Vector_base<std::pair<int, cv::Size_<int>>, std::allocator<std::pair<int, cv::Size_<int>>>>::_Vector_impl" }
%"struct.std::_Vector_base<std::pair<int, cv::Size_<int>>, std::allocator<std::pair<int, cv::Size_<int>>>>::_Vector_impl" = type { %"struct.std::_Vector_base<std::pair<int, cv::Size_<int>>, std::allocator<std::pair<int, cv::Size_<int>>>>::_Vector_impl_data" }
%"struct.std::_Vector_base<std::pair<int, cv::Size_<int>>, std::allocator<std::pair<int, cv::Size_<int>>>>::_Vector_impl_data" = type { ptr, ptr, ptr }
%"class.std::vector.0" = type { %"struct.std::_Vector_base.1" }
%"struct.std::_Vector_base.1" = type { %"struct.std::_Vector_base<long, std::allocator<long>>::_Vector_impl" }
%"struct.std::_Vector_base<long, std::allocator<long>>::_Vector_impl" = type { %"struct.std::_Vector_base<long, std::allocator<long>>::_Vector_impl_data" }
%"struct.std::_Vector_base<long, std::allocator<long>>::_Vector_impl_data" = type { ptr, ptr, ptr }
%"struct.perf::performance_metrics" = type <{ i64, i64, i32, i32, double, double, double, double, double, double, double, i32, [4 x i8] }>
%"class.perf::TestBase::_declareHelper" = type { ptr }
%"class.cv::Mat" = type { i32, i32, i32, i32, ptr, ptr, ptr, ptr, ptr, ptr, %"struct.cv::MatSize", %"struct.cv::MatStep" }
%"struct.cv::MatSize" = type { ptr }
%"struct.cv::MatStep" = type { ptr, [2 x i64] }
%"struct.std::array" = type { [20 x %"class.cv::Size_"] }
%"struct.std::array.23" = type { [20 x i64] }
%"class.perf::MatType" = type { i32 }

@_ZN4perfL6szQVGAE = internal global %"class.cv::Size_" zeroinitializer, align 4
@_ZN4perfL5szVGAE = internal global %"class.cv::Size_" zeroinitializer, align 4
@_ZN4perfL6szSVGAE = internal global %"class.cv::Size_" zeroinitializer, align 4
@_ZN4perfL5szXGAE = internal global %"class.cv::Size_" zeroinitializer, align 4
@_ZN4perfL6szSXGAE = internal global %"class.cv::Size_" zeroinitializer, align 4
@_ZN4perfL6szWQHDE = internal global %"class.cv::Size_" zeroinitializer, align 4
@_ZN4perfL5sznHDE = internal global %"class.cv::Size_" zeroinitializer, align 4
@_ZN4perfL5szqHDE = internal global %"class.cv::Size_" zeroinitializer, align 4
@_ZN4perfL6sz720pE = internal global %"class.cv::Size_" zeroinitializer, align 4
@_ZN4perfL7sz1080pE = internal global %"class.cv::Size_" zeroinitializer, align 4
@_ZN4perfL7sz2160pE = internal global %"class.cv::Size_" zeroinitializer, align 4
@_ZN4perfL7sz4320pE = internal global %"class.cv::Size_" zeroinitializer, align 4
@_ZN4perfL5sz3MPE = internal global %"class.cv::Size_" zeroinitializer, align 4
@_ZN4perfL5sz5MPE = internal global %"class.cv::Size_" zeroinitializer, align 4
@_ZN4perfL4sz2KE = internal global %"class.cv::Size_" zeroinitializer, align 4
@_ZN4perfL5szODDE = internal global %"class.cv::Size_" zeroinitializer, align 4
@_ZN4perfL9szSmall24E = internal global %"class.cv::Size_" zeroinitializer, align 4
@_ZN4perfL9szSmall32E = internal global %"class.cv::Size_" zeroinitializer, align 4
@_ZN4perfL9szSmall64E = internal global %"class.cv::Size_" zeroinitializer, align 4
@_ZN4perfL10szSmall128E = internal global %"class.cv::Size_" zeroinitializer, align 4

; Function Attrs: mustprogress nounwind uwtable
define linkonce_odr hidden noundef nonnull align 8 dereferenceable(8) ptr @_ZNSt14__array_traitsImLm20EE6_S_refERA20_Kmm(ptr noundef nonnull align 8 dereferenceable(160) %0, i64 noundef %1) #4 comdat align 2 {
  %3 = alloca ptr, align 8
  %4 = alloca i64, align 8
  store ptr %0, ptr %3, align 8
  store i64 %1, ptr %4, align 8
  %5 = load ptr, ptr %3, align 8
  %6 = load i64, ptr %4, align 8
  %7 = getelementptr inbounds [20 x i64], ptr %5, i64 0, i64 %6
  ret ptr %7
}

; Function Attrs: mustprogress nounwind uwtable
define linkonce_odr hidden noundef nonnull align 4 dereferenceable(8) ptr @_ZNSt14__array_traitsIN2cv5Size_IiEELm20EE6_S_refERA20_KS2_m(ptr noundef nonnull align 4 dereferenceable(160) %0, i64 noundef %1) #4 comdat align 2 {
  %3 = alloca ptr, align 8
  %4 = alloca i64, align 8
  store ptr %0, ptr %3, align 8
  store i64 %1, ptr %4, align 8
  %5 = load ptr, ptr %3, align 8
  %6 = load i64, ptr %4, align 8
  %7 = getelementptr inbounds [20 x %"class.cv::Size_"], ptr %5, i64 0, i64 %6
  ret ptr %7
}

; Function Attrs: mustprogress nounwind uwtable
define linkonce_odr hidden void @_ZN4perf8TestBase11setVerifiedEv(ptr noundef nonnull align 8 dereferenceable(248) %0) #4 comdat align 2 {
  %2 = alloca ptr, align 8
  store ptr %0, ptr %2, align 8
  %3 = load ptr, ptr %2, align 8
  %4 = getelementptr inbounds %"class.perf::TestBase", ptr %3, i32 0, i32 15
  store i8 1, ptr %4, align 8
  ret void
}

; Function Attrs: mustprogress nounwind uwtable
define linkonce_odr hidden noundef nonnull align 8 dereferenceable(8) ptr @_ZNSt5arrayImLm20EEixEm(ptr noundef nonnull align 8 dereferenceable(160) %0, i64 noundef %1) #4 comdat align 2 {
  %3 = alloca ptr, align 8
  %4 = alloca i64, align 8
  store ptr %0, ptr %3, align 8
  store i64 %1, ptr %4, align 8
  %5 = load ptr, ptr %3, align 8
  %6 = getelementptr inbounds %"struct.std::array.23", ptr %5, i32 0, i32 0
  %7 = load i64, ptr %4, align 8
  %8 = call noundef nonnull align 8 dereferenceable(8) ptr @_ZNSt14__array_traitsImLm20EE6_S_refERA20_Kmm(ptr noundef nonnull align 8 dereferenceable(160) %6, i64 noundef %7) #3
  ret ptr %8
}

; Function Attrs: mustprogress nounwind uwtable
define linkonce_odr hidden noundef nonnull align 4 dereferenceable(8) ptr @_ZNKSt5arrayIN2cv5Size_IiEELm20EEixEm(ptr noundef nonnull align 4 dereferenceable(160) %0, i64 noundef %1) #4 comdat align 2 {
  %3 = alloca ptr, align 8
  %4 = alloca i64, align 8
  store ptr %0, ptr %3, align 8
  store i64 %1, ptr %4, align 8
  %5 = load ptr, ptr %3, align 8
  %6 = getelementptr inbounds %"struct.std::array", ptr %5, i32 0, i32 0
  %7 = load i64, ptr %4, align 8
  %8 = call noundef nonnull align 4 dereferenceable(8) ptr @_ZNSt14__array_traitsIN2cv5Size_IiEELm20EE6_S_refERA20_KS2_m(ptr noundef nonnull align 4 dereferenceable(160) %6, i64 noundef %7) #3
  ret ptr %8
}

; Function Attrs: mustprogress nounwind willreturn memory(none) uwtable
define linkonce_odr hidden noundef i64 @_ZNKSt5arrayIN2cv5Size_IiEELm20EE4sizeEv(ptr noundef nonnull align 4 dereferenceable(160) %0) #9 comdat align 2 {
  %2 = alloca ptr, align 8
  store ptr %0, ptr %2, align 8
  ret i64 20
}

; Function Attrs: mustprogress nounwind uwtable
define linkonce_odr hidden noundef i64 @_ZNK2cv3Mat8elemSizeEv(ptr noundef nonnull align 8 dereferenceable(96) %0) #4 comdat align 2 {
  %2 = alloca ptr, align 8
  %3 = alloca i64, align 8
  store ptr %0, ptr %2, align 8
  %4 = load ptr, ptr %2, align 8
  %5 = getelementptr inbounds %"class.cv::Mat", ptr %4, i32 0, i32 1
  %6 = load i32, ptr %5, align 4
  %7 = icmp sgt i32 %6, 0
  br i1 %7, label %8, label %18

8:                                                ; preds = %1
  %9 = getelementptr inbounds %"class.cv::Mat", ptr %4, i32 0, i32 11
  %10 = getelementptr inbounds %"struct.cv::MatStep", ptr %9, i32 0, i32 0
  %11 = load ptr, ptr %10, align 8
  %12 = getelementptr inbounds %"class.cv::Mat", ptr %4, i32 0, i32 1
  %13 = load i32, ptr %12, align 4
  %14 = sub nsw i32 %13, 1
  %15 = sext i32 %14 to i64
  %16 = getelementptr inbounds i64, ptr %11, i64 %15
  %17 = load i64, ptr %16, align 8
  br label %19

18:                                               ; preds = %1
  br label %19

19:                                               ; preds = %18, %8
  %20 = phi i64 [ %17, %8 ], [ 0, %18 ]
  store i64 %20, ptr %3, align 8
  %21 = load i64, ptr %3, align 8
  ret i64 %21
}

; Function Attrs: mustprogress nounwind uwtable
define linkonce_odr hidden noundef i32 @_ZNK4perf7MatTypecviEv(ptr noundef nonnull align 4 dereferenceable(4) %0) #4 comdat align 2 {
  %2 = alloca ptr, align 8
  store ptr %0, ptr %2, align 8
  %3 = load ptr, ptr %2, align 8
  %4 = getelementptr inbounds %"class.perf::MatType", ptr %3, i32 0, i32 0
  %5 = load i32, ptr %4, align 4
  ret i32 %5
}

; Function Attrs: mustprogress uwtable
define hidden void @_ZN11opencv_test39MatDepth_tb_DISABLED_Allocation_Aligned12PerfTestBodyEv(ptr noundef nonnull align 8 dereferenceable(256) %0) unnamed_addr #5 align 2 personality ptr @__gxx_personality_v0 {
  %2 = alloca ptr, align 8
  %3 = alloca i32, align 4
  %4 = alloca %"class.cv::Mat", align 8
  %5 = alloca i64, align 8
  %6 = alloca ptr, align 8
  %7 = alloca i32, align 4
  %8 = alloca %"struct.std::array", align 4
  %9 = alloca %"struct.std::array.23", align 8
  %10 = alloca i64, align 8
  %11 = alloca i32, align 4
  store ptr %0, ptr %2, align 8
  %12 = load ptr, ptr %2, align 8
  %13 = getelementptr inbounds i8, ptr %12, i64 248
  %14 = call noundef nonnull align 4 dereferenceable(4) ptr @_ZNK7testing18WithParamInterfaceIN4perf7MatTypeEE8GetParamEv(ptr noundef nonnull align 8 dereferenceable(8) %13)
  %15 = call noundef i32 @_ZNK4perf7MatTypecviEv(ptr noundef nonnull align 4 dereferenceable(4) %14)
  store i32 %15, ptr %3, align 4
  %16 = load i32, ptr %3, align 4
  call void @_ZN2cv3MatC1Eiii(ptr noundef nonnull align 8 dereferenceable(96) %4, i32 noundef 1, i32 noundef 1, i32 noundef %16)
  %17 = invoke noundef i64 @_ZNK2cv3Mat8elemSizeEv(ptr noundef nonnull align 8 dereferenceable(96) %4)
          to label %18 unwind label %61

18:                                               ; preds = %1
  store i64 %17, ptr %5, align 8
  %19 = getelementptr inbounds %"struct.std::array", ptr %8, i32 0, i32 0
  call void @llvm.memcpy.p0.p0.i64(ptr align 4 %19, ptr align 4 @_ZN4perfL9szSmall24E, i64 8, i1 false)
  %20 = getelementptr inbounds %"class.cv::Size_", ptr %19, i64 1
  call void @llvm.memcpy.p0.p0.i64(ptr align 4 %20, ptr align 4 @_ZN4perfL9szSmall32E, i64 8, i1 false)
  %21 = getelementptr inbounds %"class.cv::Size_", ptr %19, i64 2
  call void @llvm.memcpy.p0.p0.i64(ptr align 4 %21, ptr align 4 @_ZN4perfL9szSmall64E, i64 8, i1 false)
  %22 = getelementptr inbounds %"class.cv::Size_", ptr %19, i64 3
  call void @llvm.memcpy.p0.p0.i64(ptr align 4 %22, ptr align 4 @_ZN4perfL5sz5MPE, i64 8, i1 false)
  %23 = getelementptr inbounds %"class.cv::Size_", ptr %19, i64 4
  call void @llvm.memcpy.p0.p0.i64(ptr align 4 %23, ptr align 4 @_ZN4perfL4sz2KE, i64 8, i1 false)
  %24 = getelementptr inbounds %"class.cv::Size_", ptr %19, i64 5
  call void @llvm.memcpy.p0.p0.i64(ptr align 4 %24, ptr align 4 @_ZN4perfL10szSmall128E, i64 8, i1 false)
  %25 = getelementptr inbounds %"class.cv::Size_", ptr %19, i64 6
  call void @llvm.memcpy.p0.p0.i64(ptr align 4 %25, ptr align 4 @_ZN4perfL5szODDE, i64 8, i1 false)
  %26 = getelementptr inbounds %"class.cv::Size_", ptr %19, i64 7
  call void @llvm.memcpy.p0.p0.i64(ptr align 4 %26, ptr align 4 @_ZN4perfL6szQVGAE, i64 8, i1 false)
  %27 = getelementptr inbounds %"class.cv::Size_", ptr %19, i64 8
  call void @llvm.memcpy.p0.p0.i64(ptr align 4 %27, ptr align 4 @_ZN4perfL5szVGAE, i64 8, i1 false)
  %28 = getelementptr inbounds %"class.cv::Size_", ptr %19, i64 9
  call void @llvm.memcpy.p0.p0.i64(ptr align 4 %28, ptr align 4 @_ZN4perfL6szSVGAE, i64 8, i1 false)
  %29 = getelementptr inbounds %"class.cv::Size_", ptr %19, i64 10
  call void @llvm.memcpy.p0.p0.i64(ptr align 4 %29, ptr align 4 @_ZN4perfL6sz720pE, i64 8, i1 false)
  %30 = getelementptr inbounds %"class.cv::Size_", ptr %19, i64 11
  call void @llvm.memcpy.p0.p0.i64(ptr align 4 %30, ptr align 4 @_ZN4perfL7sz1080pE, i64 8, i1 false)
  %31 = getelementptr inbounds %"class.cv::Size_", ptr %19, i64 12
  call void @llvm.memcpy.p0.p0.i64(ptr align 4 %31, ptr align 4 @_ZN4perfL7sz2160pE, i64 8, i1 false)
  %32 = getelementptr inbounds %"class.cv::Size_", ptr %19, i64 13
  call void @llvm.memcpy.p0.p0.i64(ptr align 4 %32, ptr align 4 @_ZN4perfL7sz4320pE, i64 8, i1 false)
  %33 = getelementptr inbounds %"class.cv::Size_", ptr %19, i64 14
  call void @llvm.memcpy.p0.p0.i64(ptr align 4 %33, ptr align 4 @_ZN4perfL5sz3MPE, i64 8, i1 false)
  %34 = getelementptr inbounds %"class.cv::Size_", ptr %19, i64 15
  call void @llvm.memcpy.p0.p0.i64(ptr align 4 %34, ptr align 4 @_ZN4perfL5szXGAE, i64 8, i1 false)
  %35 = getelementptr inbounds %"class.cv::Size_", ptr %19, i64 16
  call void @llvm.memcpy.p0.p0.i64(ptr align 4 %35, ptr align 4 @_ZN4perfL6szSXGAE, i64 8, i1 false)
  %36 = getelementptr inbounds %"class.cv::Size_", ptr %19, i64 17
  call void @llvm.memcpy.p0.p0.i64(ptr align 4 %36, ptr align 4 @_ZN4perfL6szWQHDE, i64 8, i1 false)
  %37 = getelementptr inbounds %"class.cv::Size_", ptr %19, i64 18
  call void @llvm.memcpy.p0.p0.i64(ptr align 4 %37, ptr align 4 @_ZN4perfL5sznHDE, i64 8, i1 false)
  %38 = getelementptr inbounds %"class.cv::Size_", ptr %19, i64 19
  call void @llvm.memcpy.p0.p0.i64(ptr align 4 %38, ptr align 4 @_ZN4perfL5szqHDE, i64 8, i1 false)
  store i64 0, ptr %10, align 8
  br label %39

39:                                               ; preds = %58, %18
  %40 = load i64, ptr %10, align 8
  %41 = call noundef i64 @_ZNKSt5arrayIN2cv5Size_IiEELm20EE4sizeEv(ptr noundef nonnull align 4 dereferenceable(160) %8) #23
  %42 = icmp ult i64 %40, %41
  br i1 %42, label %43, label %65

43:                                               ; preds = %39
  %44 = load i64, ptr %10, align 8
  %45 = call noundef nonnull align 4 dereferenceable(8) ptr @_ZNKSt5arrayIN2cv5Size_IiEELm20EEixEm(ptr noundef nonnull align 4 dereferenceable(160) %8, i64 noundef %44) #3
  %46 = getelementptr inbounds %"class.cv::Size_", ptr %45, i32 0, i32 0
  %47 = load i32, ptr %46, align 4
  %48 = load i64, ptr %10, align 8
  %49 = call noundef nonnull align 4 dereferenceable(8) ptr @_ZNKSt5arrayIN2cv5Size_IiEELm20EEixEm(ptr noundef nonnull align 4 dereferenceable(160) %8, i64 noundef %48) #3
  %50 = getelementptr inbounds %"class.cv::Size_", ptr %49, i32 0, i32 1
  %51 = load i32, ptr %50, align 4
  %52 = mul nsw i32 %47, %51
  %53 = sext i32 %52 to i64
  %54 = load i64, ptr %5, align 8
  %55 = mul i64 %53, %54
  %56 = load i64, ptr %10, align 8
  %57 = call noundef nonnull align 8 dereferenceable(8) ptr @_ZNSt5arrayImLm20EEixEm(ptr noundef nonnull align 8 dereferenceable(160) %9, i64 noundef %56) #3
  store i64 %55, ptr %57, align 8
  br label %58

58:                                               ; preds = %43
  %59 = load i64, ptr %10, align 8
  %60 = add i64 %59, 1
  store i64 %60, ptr %10, align 8
  br label %39, !llvm.loop !7

61:                                               ; preds = %99, %97, %91, %83, %74, %71, %68, %65, %1
  %62 = landingpad { ptr, i32 }
          cleanup
  %63 = extractvalue { ptr, i32 } %62, 0
  store ptr %63, ptr %6, align 8
  %64 = extractvalue { ptr, i32 } %62, 1
  store i32 %64, ptr %7, align 4
  call void @_ZN2cv3MatD1Ev(ptr noundef nonnull align 8 dereferenceable(96) %4) #3
  br label %101

65:                                               ; preds = %39
  %66 = getelementptr inbounds %"class.perf::TestBase", ptr %12, i32 0, i32 16
  %67 = invoke noundef nonnull align 8 dereferenceable(8) ptr @_ZN4perf8TestBase14_declareHelper4timeEd(ptr noundef nonnull align 8 dereferenceable(8) %66, double noundef 6.000000e+01)
          to label %68 unwind label %61

68:                                               ; preds = %65
  %69 = invoke noundef nonnull align 8 dereferenceable(8) ptr @_ZN4perf8TestBase14_declareHelper10iterationsEj(ptr noundef nonnull align 8 dereferenceable(8) %67, i32 noundef 100)
          to label %70 unwind label %61

70:                                               ; preds = %68
  br label %71

71:                                               ; preds = %98, %70
  %72 = invoke noundef zeroext i1 @_ZN4perf8TestBase4nextEv(ptr noundef nonnull align 8 dereferenceable(248) %12)
          to label %73 unwind label %61

73:                                               ; preds = %71
  br i1 %72, label %74, label %77

74:                                               ; preds = %73
  %75 = invoke noundef zeroext i1 @_ZN4perf8TestBase10startTimerEv(ptr noundef nonnull align 8 dereferenceable(248) %12)
          to label %76 unwind label %61

76:                                               ; preds = %74
  br label %77

77:                                               ; preds = %76, %73
  %78 = phi i1 [ false, %73 ], [ %75, %76 ]
  br i1 %78, label %79, label %99

79:                                               ; preds = %77
  store i32 0, ptr %11, align 4
  br label %80

80:                                               ; preds = %93, %79
  %81 = load i32, ptr %11, align 4
  %82 = icmp slt i32 %81, 100000
  br i1 %82, label %83, label %96

83:                                               ; preds = %80
  %84 = load i32, ptr %11, align 4
  %85 = sext i32 %84 to i64
  %86 = call noundef i64 @_ZNKSt5arrayIN2cv5Size_IiEELm20EE4sizeEv(ptr noundef nonnull align 4 dereferenceable(160) %8) #23
  %87 = urem i64 %85, %86
  %88 = call noundef nonnull align 8 dereferenceable(8) ptr @_ZNSt5arrayImLm20EEixEm(ptr noundef nonnull align 8 dereferenceable(160) %9, i64 noundef %87) #3
  %89 = load i64, ptr %88, align 8
  %90 = invoke noundef ptr @_ZN2cv10fastMallocEm(i64 noundef %89)
          to label %91 unwind label %61

91:                                               ; preds = %83
  invoke void @_ZN2cv8fastFreeEPv(ptr noundef %90)
          to label %92 unwind label %61

92:                                               ; preds = %91
  br label %93

93:                                               ; preds = %92
  %94 = load i32, ptr %11, align 4
  %95 = add nsw i32 %94, 1
  store i32 %95, ptr %11, align 4
  br label %80, !llvm.loop !8

96:                                               ; preds = %80
  br label %97

97:                                               ; preds = %96
  invoke void @_ZN4perf8TestBase9stopTimerEv(ptr noundef nonnull align 8 dereferenceable(248) %12)
          to label %98 unwind label %61

98:                                               ; preds = %97
  br label %71, !llvm.loop !9

99:                                               ; preds = %77
  invoke void @_ZN4perf8TestBase11setVerifiedEv(ptr noundef nonnull align 8 dereferenceable(248) %12)
          to label %100 unwind label %61

100:                                              ; preds = %99
  call void @_ZN2cv3MatD1Ev(ptr noundef nonnull align 8 dereferenceable(96) %4) #3
  ret void

101:                                              ; preds = %61
  %102 = load ptr, ptr %6, align 8
  %103 = load i32, ptr %7, align 4
  %104 = insertvalue { ptr, i32 } poison, ptr %102, 0
  %105 = insertvalue { ptr, i32 } %104, i32 %103, 1
  resume { ptr, i32 } %105
}