; Function Attrs: mustprogress uwtable
define hidden void @_ZN11opencv_test39MatDepth_tb_DISABLED_Allocation_Aligned12PerfTestBodyEv(ptr noundef nonnull align 8 dereferenceable(256) %0) unnamed_addr #3 align 2 personality ptr @__gxx_personality_v0 {
  %2 = alloca %"class.cv::Mat", align 8
  %3 = alloca %"struct.std::array", align 8
  %4 = alloca %"struct.std::array.23", align 8
  %5 = getelementptr inbounds i8, ptr %0, i64 248
  %6 = tail call noundef nonnull align 4 dereferenceable(4) ptr @_ZNK7testing18WithParamInterfaceIN4perf7MatTypeEE8GetParamEv(ptr noundef nonnull align 8 dereferenceable(8) %5)
  %7 = load i32, ptr %6, align 4
  call void @_ZN2cv3MatC1Eiii(ptr noundef nonnull align 8 dereferenceable(96) %2, i32 noundef 1, i32 noundef 1, i32 noundef %7)
  %8 = getelementptr inbounds i8, ptr %2, i64 4
  %9 = load i32, ptr %8, align 4
  %10 = icmp sgt i32 %9, 0
  br i1 %10, label %11, label %_ZNK2cv3Mat8elemSizeEv.exit

11:                                               ; preds = %1
  %12 = getelementptr inbounds i8, ptr %2, i64 72
  %13 = load ptr, ptr %12, align 8
  %14 = zext nneg i32 %9 to i64
  %15 = getelementptr i64, ptr %13, i64 %14
  %16 = getelementptr i8, ptr %15, i64 -8
  %17 = load i64, ptr %16, align 8
  br label %_ZNK2cv3Mat8elemSizeEv.exit

_ZNK2cv3Mat8elemSizeEv.exit:                      ; preds = %1, %11
  %18 = phi i64 [ %17, %11 ], [ 0, %1 ]
  %19 = load i64, ptr @_ZN4perfL9szSmall24E, align 8
  store i64 %19, ptr %3, align 8
  %20 = getelementptr inbounds i8, ptr %3, i64 8
  %21 = load i64, ptr @_ZN4perfL9szSmall32E, align 8
  store i64 %21, ptr %20, align 8
  %22 = getelementptr inbounds i8, ptr %3, i64 16
  %23 = load i64, ptr @_ZN4perfL9szSmall64E, align 8
  store i64 %23, ptr %22, align 8
  %24 = getelementptr inbounds i8, ptr %3, i64 24
  %25 = load i64, ptr @_ZN4perfL5sz5MPE, align 8
  store i64 %25, ptr %24, align 8
  %26 = getelementptr inbounds i8, ptr %3, i64 32
  %27 = load i64, ptr @_ZN4perfL4sz2KE, align 8
  store i64 %27, ptr %26, align 8
  %28 = getelementptr inbounds i8, ptr %3, i64 40
  %29 = load i64, ptr @_ZN4perfL10szSmall128E, align 8
  store i64 %29, ptr %28, align 8
  %30 = getelementptr inbounds i8, ptr %3, i64 48
  %31 = load i64, ptr @_ZN4perfL5szODDE, align 8
  store i64 %31, ptr %30, align 8
  %32 = getelementptr inbounds i8, ptr %3, i64 56
  %33 = load i64, ptr @_ZN4perfL6szQVGAE, align 8
  store i64 %33, ptr %32, align 8
  %34 = getelementptr inbounds i8, ptr %3, i64 64
  %35 = load i64, ptr @_ZN4perfL5szVGAE, align 8
  store i64 %35, ptr %34, align 8
  %36 = getelementptr inbounds i8, ptr %3, i64 72
  %37 = load i64, ptr @_ZN4perfL6szSVGAE, align 8
  store i64 %37, ptr %36, align 8
  %38 = getelementptr inbounds i8, ptr %3, i64 80
  %39 = load i64, ptr @_ZN4perfL6sz720pE, align 8
  store i64 %39, ptr %38, align 8
  %40 = getelementptr inbounds i8, ptr %3, i64 88
  %41 = load i64, ptr @_ZN4perfL7sz1080pE, align 8
  store i64 %41, ptr %40, align 8
  %42 = getelementptr inbounds i8, ptr %3, i64 96
  %43 = load i64, ptr @_ZN4perfL7sz2160pE, align 8
  store i64 %43, ptr %42, align 8
  %44 = getelementptr inbounds i8, ptr %3, i64 104
  %45 = load i64, ptr @_ZN4perfL7sz4320pE, align 8
  store i64 %45, ptr %44, align 8
  %46 = getelementptr inbounds i8, ptr %3, i64 112
  %47 = load i64, ptr @_ZN4perfL5sz3MPE, align 8
  store i64 %47, ptr %46, align 8
  %48 = getelementptr inbounds i8, ptr %3, i64 120
  %49 = load i64, ptr @_ZN4perfL5szXGAE, align 8
  store i64 %49, ptr %48, align 8
  %50 = getelementptr inbounds i8, ptr %3, i64 128
  %51 = load i64, ptr @_ZN4perfL6szSXGAE, align 8
  store i64 %51, ptr %50, align 8
  %52 = getelementptr inbounds i8, ptr %3, i64 136
  %53 = load i64, ptr @_ZN4perfL6szWQHDE, align 8
  store i64 %53, ptr %52, align 8
  %54 = getelementptr inbounds i8, ptr %3, i64 144
  %55 = load i64, ptr @_ZN4perfL5sznHDE, align 8
  store i64 %55, ptr %54, align 8
  %56 = getelementptr inbounds i8, ptr %3, i64 152
  %57 = load i64, ptr @_ZN4perfL5szqHDE, align 8
  store i64 %57, ptr %56, align 8
  br label %58

58:                                               ; preds = %_ZNK2cv3Mat8elemSizeEv.exit, %58
  %.01218 = phi i64 [ 0, %_ZNK2cv3Mat8elemSizeEv.exit ], [ %67, %58 ]
  %59 = getelementptr inbounds [20 x %"class.cv::Size_"], ptr %3, i64 0, i64 %.01218
  %60 = load i32, ptr %59, align 8
  %61 = getelementptr inbounds i8, ptr %59, i64 4
  %62 = load i32, ptr %61, align 4
  %63 = mul nsw i32 %62, %60
  %64 = sext i32 %63 to i64
  %65 = mul i64 %18, %64
  %66 = getelementptr inbounds [20 x i64], ptr %4, i64 0, i64 %.01218
  store i64 %65, ptr %66, align 8
  %67 = add nuw nsw i64 %.01218, 1
  %exitcond.not = icmp eq i64 %67, 20
  br i1 %exitcond.not, label %68, label %58, !llvm.loop !17

.loopexit:                                        ; preds = %.preheader, %82
  %lpad.loopexit = landingpad { ptr, i32 }
          cleanup
  br label %.loopexit.split-lp

.loopexit.split-lp.loopexit:                      ; preds = %85, %75, %.preheader14
  %lpad.loopexit15 = landingpad { ptr, i32 }
          cleanup
  br label %.loopexit.split-lp

.loopexit.split-lp.loopexit.split-lp:             ; preds = %71, %68
  %lpad.loopexit.split-lp16 = landingpad { ptr, i32 }
          cleanup
  br label %.loopexit.split-lp

.loopexit.split-lp:                               ; preds = %.loopexit.split-lp.loopexit, %.loopexit.split-lp.loopexit.split-lp, %.loopexit
  %lpad.phi = phi { ptr, i32 } [ %lpad.loopexit, %.loopexit ], [ %lpad.loopexit15, %.loopexit.split-lp.loopexit ], [ %lpad.loopexit.split-lp16, %.loopexit.split-lp.loopexit.split-lp ]
  call void @_ZN2cv3MatD1Ev(ptr noundef nonnull align 8 dereferenceable(96) %2) #25
  resume { ptr, i32 } %lpad.phi

68:                                               ; preds = %58
  %69 = getelementptr inbounds i8, ptr %0, i64 240
  %70 = invoke noundef nonnull align 8 dereferenceable(8) ptr @_ZN4perf8TestBase14_declareHelper4timeEd(ptr noundef nonnull align 8 dereferenceable(8) %69, double noundef 6.000000e+01)
          to label %71 unwind label %.loopexit.split-lp.loopexit.split-lp

71:                                               ; preds = %68
  %72 = invoke noundef nonnull align 8 dereferenceable(8) ptr @_ZN4perf8TestBase14_declareHelper10iterationsEj(ptr noundef nonnull align 8 dereferenceable(8) %70, i32 noundef 100)
          to label %.preheader14 unwind label %.loopexit.split-lp.loopexit.split-lp

.preheader14:                                     ; preds = %71, %85
  %73 = invoke noundef zeroext i1 @_ZN4perf8TestBase4nextEv(ptr noundef nonnull align 8 dereferenceable(248) %0)
          to label %74 unwind label %.loopexit.split-lp.loopexit

74:                                               ; preds = %.preheader14
  br i1 %73, label %75, label %.critedge

75:                                               ; preds = %74
  %76 = invoke noundef zeroext i1 @_ZN4perf8TestBase10startTimerEv(ptr noundef nonnull align 8 dereferenceable(248) %0)
          to label %77 unwind label %.loopexit.split-lp.loopexit

77:                                               ; preds = %75
  br i1 %76, label %.preheader, label %.critedge

.preheader:                                       ; preds = %77, %83
  %.019 = phi i32 [ %84, %83 ], [ 0, %77 ]
  %78 = urem i32 %.019, 20
  %.zext = zext nneg i32 %78 to i64
  %79 = getelementptr inbounds [20 x i64], ptr %4, i64 0, i64 %.zext
  %80 = load i64, ptr %79, align 8
  %81 = invoke noundef ptr @_ZN2cv10fastMallocEm(i64 noundef %80)
          to label %82 unwind label %.loopexit

82:                                               ; preds = %.preheader
  invoke void @_ZN2cv8fastFreeEPv(ptr noundef %81)
          to label %83 unwind label %.loopexit

83:                                               ; preds = %82
  %84 = add nuw nsw i32 %.019, 1
  %exitcond20.not = icmp eq i32 %84, 100000
  br i1 %exitcond20.not, label %85, label %.preheader, !llvm.loop !18

85:                                               ; preds = %83
  invoke void @_ZN4perf8TestBase9stopTimerEv(ptr noundef nonnull align 8 dereferenceable(248) %0)
          to label %.preheader14 unwind label %.loopexit.split-lp.loopexit, !llvm.loop !19

.critedge:                                        ; preds = %74, %77
  %86 = getelementptr inbounds i8, ptr %0, i64 232
  store i8 1, ptr %86, align 8
  call void @_ZN2cv3MatD1Ev(ptr noundef nonnull align 8 dereferenceable(96) %2) #25
  ret void
}